; Function Attrs: null_pointer_is_valid sspstrong uwtable
define internal range(i32 -2147483648, 45) i32 @dissect_elink_interface_counters(ptr noundef %0, ptr noundef %1, ptr noundef %2, ptr noundef %3, i32 noundef %4, i32 noundef %5) #0 {
  %7 = icmp slt i32 %5, 44
  br i1 %7, label %8, label %10

8:                                                ; preds = %6
  %9 = tail call ptr @expert_add_info(ptr noundef %0, ptr noundef %2, ptr noundef nonnull @ei_mal_elink_interface_counters)
  br label %43

10:                                               ; preds = %6
  %11 = load i32, ptr @hf_elink_icount_in_octets, align 4
  %12 = tail call ptr @proto_tree_add_item(ptr noundef %1, i32 noundef %11, ptr noundef %3, i32 noundef %4, i32 noundef 4, i32 noundef -2147483648)
  %13 = load i32, ptr @hf_elink_icount_in_ucast, align 4
  %14 = add i32 %4, 4
  %15 = tail call ptr @proto_tree_add_item(ptr noundef %1, i32 noundef %13, ptr noundef %3, i32 noundef %14, i32 noundef 4, i32 noundef -2147483648)
  %16 = load i32, ptr @hf_elink_icount_in_nucast, align 4
  %17 = add i32 %4, 8
  %18 = tail call ptr @proto_tree_add_item(ptr noundef %1, i32 noundef %16, ptr noundef %3, i32 noundef %17, i32 noundef 4, i32 noundef -2147483648)
  %19 = load i32, ptr @hf_elink_icount_in_discards, align 4
  %20 = add i32 %4, 12
  %21 = tail call ptr @proto_tree_add_item(ptr noundef %1, i32 noundef %19, ptr noundef %3, i32 noundef %20, i32 noundef 4, i32 noundef -2147483648)
  %22 = load i32, ptr @hf_elink_icount_in_errors, align 4
  %23 = add i32 %4, 16
  %24 = tail call ptr @proto_tree_add_item(ptr noundef %1, i32 noundef %22, ptr noundef %3, i32 noundef %23, i32 noundef 4, i32 noundef -2147483648)
  %25 = load i32, ptr @hf_elink_icount_in_unknown_protos, align 4
  %26 = add i32 %4, 20
  %27 = tail call ptr @proto_tree_add_item(ptr noundef %1, i32 noundef %25, ptr noundef %3, i32 noundef %26, i32 noundef 4, i32 noundef -2147483648)
  %28 = load i32, ptr @hf_elink_icount_out_octets, align 4
  %29 = add i32 %4, 24
  %30 = tail call ptr @proto_tree_add_item(ptr noundef %1, i32 noundef %28, ptr noundef %3, i32 noundef %29, i32 noundef 4, i32 noundef -2147483648)
  %31 = load i32, ptr @hf_elink_icount_out_ucast, align 4
  %32 = add i32 %4, 28
  %33 = tail call ptr @proto_tree_add_item(ptr noundef %1, i32 noundef %31, ptr noundef %3, i32 noundef %32, i32 noundef 4, i32 noundef -2147483648)
  %34 = load i32, ptr @hf_elink_icount_out_nucast, align 4
  %35 = add i32 %4, 32
  %36 = tail call ptr @proto_tree_add_item(ptr noundef %1, i32 noundef %34, ptr noundef %3, i32 noundef %35, i32 noundef 4, i32 noundef -2147483648)
  %37 = load i32, ptr @hf_elink_icount_out_discards, align 4
  %38 = add i32 %4, 36
  %39 = tail call ptr @proto_tree_add_item(ptr noundef %1, i32 noundef %37, ptr noundef %3, i32 noundef %38, i32 noundef 4, i32 noundef -2147483648)
  %40 = load i32, ptr @hf_elink_icount_out_errors, align 4
  %41 = add i32 %4, 40
  %42 = tail call ptr @proto_tree_add_item(ptr noundef %1, i32 noundef %40, ptr noundef %3, i32 noundef %41, i32 noundef 4, i32 noundef -2147483648)
  br label %43

43:                                               ; preds = %10, %8
  %.0 = phi i32 [ %5, %8 ], [ 44, %10 ]
  ret i32 %.0
}